target datalayout = "e-m:e-p270:32:32-p271:32:32-p272:64:64-i64:64-i128:128-f80:128-n8:16:32:64-S128"
target triple = "x86_64-pc-linux-gnu"

%struct._lv_matrix_t = type { [3 x [3 x float]] }
%struct._lv_array_t = type { ptr, i32, i32, i32, i8 }
%struct.lv_area_t = type { i32, i32, i32, i32 }
%struct.lv_color32_t = type { i8, i8, i8, i8 }
%struct.lv_color_t = type { i8, i8, i8 }
%struct._lv_vector_dsc_t = type { ptr, %struct._lv_vector_draw_dsc_t, %struct._lv_draw_vector_task_dsc_t }
%struct._lv_vector_draw_dsc_t = type { %struct._lv_vector_fill_dsc_t, %struct._lv_vector_stroke_dsc_t, %struct._lv_matrix_t, i32, %struct.lv_area_t }
%struct._lv_vector_fill_dsc_t = type { i32, %struct.lv_color32_t, i8, i32, %struct._lv_draw_image_dsc_t, %struct._lv_vector_gradient_t, %struct._lv_matrix_t }
%struct._lv_draw_image_dsc_t = type { %struct.lv_draw_dsc_base_t, ptr, %struct.lv_image_header_t, i32, i32, i32, i32, i32, %struct.lv_point_t, %struct.lv_color_t, i8, i8, i8, ptr, %struct.lv_area_t, i32, ptr }
%struct.lv_draw_dsc_base_t = type { ptr, i32, i32, i32, ptr, i64, ptr }
%struct.lv_image_header_t = type <{ i64, i32 }>
%struct.lv_point_t = type { i32, i32 }
%struct._lv_vector_gradient_t = type { i32, [2 x %struct.lv_gradient_stop_t], i16, float, float, float, float, float, float, float, i32 }
%struct.lv_gradient_stop_t = type { %struct.lv_color_t, i8, i8 }
%struct._lv_vector_stroke_dsc_t = type { i32, %struct.lv_color32_t, i8, float, %struct._lv_array_t, i32, i32, i16, %struct._lv_vector_gradient_t, %struct._lv_matrix_t }
%struct._lv_draw_vector_task_dsc_t = type { %struct.lv_draw_dsc_base_t, ptr }
%struct._lv_layer_t = type { ptr, %struct.lv_area_t, i32, %struct.lv_area_t, %struct.lv_area_t, ptr, ptr, ptr, i8, ptr }
%struct.lv_vector_draw_task = type { ptr, %struct._lv_vector_draw_dsc_t }

; Function Attrs: inlinehint nounwind uwtable
define internal void @lv_area_copy(ptr noundef %0, ptr noundef %1) #4 {
  %3 = alloca ptr, align 8
  %4 = alloca ptr, align 8
  store ptr %0, ptr %3, align 8, !tbaa !3
  store ptr %1, ptr %4, align 8, !tbaa !3
  %5 = load ptr, ptr %4, align 8, !tbaa !3
  %6 = getelementptr inbounds nuw %struct.lv_area_t, ptr %5, i32 0, i32 0
  %7 = load i32, ptr %6, align 4, !tbaa !25
  %8 = load ptr, ptr %3, align 8, !tbaa !3
  %9 = getelementptr inbounds nuw %struct.lv_area_t, ptr %8, i32 0, i32 0
  store i32 %7, ptr %9, align 4, !tbaa !25
  %10 = load ptr, ptr %4, align 8, !tbaa !3
  %11 = getelementptr inbounds nuw %struct.lv_area_t, ptr %10, i32 0, i32 1
  %12 = load i32, ptr %11, align 4, !tbaa !27
  %13 = load ptr, ptr %3, align 8, !tbaa !3
  %14 = getelementptr inbounds nuw %struct.lv_area_t, ptr %13, i32 0, i32 1
  store i32 %12, ptr %14, align 4, !tbaa !27
  %15 = load ptr, ptr %4, align 8, !tbaa !3
  %16 = getelementptr inbounds nuw %struct.lv_area_t, ptr %15, i32 0, i32 2
  %17 = load i32, ptr %16, align 4, !tbaa !28
  %18 = load ptr, ptr %3, align 8, !tbaa !3
  %19 = getelementptr inbounds nuw %struct.lv_area_t, ptr %18, i32 0, i32 2
  store i32 %17, ptr %19, align 4, !tbaa !28
  %20 = load ptr, ptr %4, align 8, !tbaa !3
  %21 = getelementptr inbounds nuw %struct.lv_area_t, ptr %20, i32 0, i32 3
  %22 = load i32, ptr %21, align 4, !tbaa !29
  %23 = load ptr, ptr %3, align 8, !tbaa !3
  %24 = getelementptr inbounds nuw %struct.lv_area_t, ptr %23, i32 0, i32 3
  store i32 %22, ptr %24, align 4, !tbaa !29
  ret void
}

; Function Attrs: nounwind uwtable
define void @lv_vector_clear_area(ptr noundef %0, ptr noundef %1) #0 {
  %3 = alloca ptr, align 8
  %4 = alloca ptr, align 8
  %5 = alloca %struct.lv_area_t, align 4
  %6 = alloca i32, align 4
  %7 = alloca ptr, align 8
  store ptr %0, ptr %3, align 8, !tbaa !3
  store ptr %1, ptr %4, align 8, !tbaa !3
  call void @llvm.lifetime.start.p0(i64 16, ptr %5) #7
  %8 = load ptr, ptr %3, align 8, !tbaa !3
  %9 = getelementptr inbounds nuw %struct._lv_vector_dsc_t, ptr %8, i32 0, i32 0
  %10 = load ptr, ptr %9, align 8, !tbaa !36
  %11 = getelementptr inbounds nuw %struct._lv_layer_t, ptr %10, i32 0, i32 3
  %12 = load ptr, ptr %3, align 8, !tbaa !3
  %13 = getelementptr inbounds nuw %struct._lv_vector_dsc_t, ptr %12, i32 0, i32 1
  %14 = getelementptr inbounds nuw %struct._lv_vector_draw_dsc_t, ptr %13, i32 0, i32 4
  %15 = call zeroext i1 @lv_area_intersect(ptr noundef %5, ptr noundef %11, ptr noundef %14)
  br i1 %15, label %17, label %16

16:                                               ; preds = %2
  store i32 1, ptr %6, align 4
  br label %75

17:                                               ; preds = %2
  %18 = load ptr, ptr %3, align 8, !tbaa !3
  %19 = getelementptr inbounds nuw %struct._lv_vector_dsc_t, ptr %18, i32 0, i32 2
  %20 = getelementptr inbounds nuw %struct._lv_draw_vector_task_dsc_t, ptr %19, i32 0, i32 1
  %21 = load ptr, ptr %20, align 8, !tbaa !64
  %22 = icmp ne ptr %21, null
  br i1 %22, label %47, label %23

23:                                               ; preds = %17
  %24 = call ptr @lv_malloc(i64 noundef 24)
  %25 = load ptr, ptr %3, align 8, !tbaa !3
  %26 = getelementptr inbounds nuw %struct._lv_vector_dsc_t, ptr %25, i32 0, i32 2
  %27 = getelementptr inbounds nuw %struct._lv_draw_vector_task_dsc_t, ptr %26, i32 0, i32 1
  store ptr %24, ptr %27, align 8, !tbaa !64
  br label %28

28:                                               ; preds = %23
  %29 = load ptr, ptr %3, align 8, !tbaa !3
  %30 = getelementptr inbounds nuw %struct._lv_vector_dsc_t, ptr %29, i32 0, i32 2
  %31 = getelementptr inbounds nuw %struct._lv_draw_vector_task_dsc_t, ptr %30, i32 0, i32 1
  %32 = load ptr, ptr %31, align 8, !tbaa !64
  %33 = icmp ne ptr %32, null
  br i1 %33, label %40, label %34

34:                                               ; preds = %28
  br label %35

35:                                               ; preds = %34
  br label %36

36:                                               ; preds = %35
  br label %37

37:                                               ; preds = %36
  br label %38

38:                                               ; preds = %39, %37
  br label %39

39:                                               ; preds = %38
  br label %38

40:                                               ; preds = %28
  br label %41

41:                                               ; preds = %40
  br label %42

42:                                               ; preds = %41
  %43 = load ptr, ptr %3, align 8, !tbaa !3
  %44 = getelementptr inbounds nuw %struct._lv_vector_dsc_t, ptr %43, i32 0, i32 2
  %45 = getelementptr inbounds nuw %struct._lv_draw_vector_task_dsc_t, ptr %44, i32 0, i32 1
  %46 = load ptr, ptr %45, align 8, !tbaa !64
  call void @lv_ll_init(ptr noundef %46, i32 noundef 448)
  br label %47

47:                                               ; preds = %42, %17
  call void @llvm.lifetime.start.p0(i64 8, ptr %7) #7
  %48 = load ptr, ptr %3, align 8, !tbaa !3
  %49 = getelementptr inbounds nuw %struct._lv_vector_dsc_t, ptr %48, i32 0, i32 2
  %50 = getelementptr inbounds nuw %struct._lv_draw_vector_task_dsc_t, ptr %49, i32 0, i32 1
  %51 = load ptr, ptr %50, align 8, !tbaa !64
  %52 = call ptr @lv_ll_ins_tail(ptr noundef %51)
  store ptr %52, ptr %7, align 8, !tbaa !3
  %53 = load ptr, ptr %7, align 8, !tbaa !3
  call void @lv_memset(ptr noundef %53, i8 noundef zeroext 0, i64 noundef 448)
  %54 = load ptr, ptr %7, align 8, !tbaa !3
  %55 = getelementptr inbounds nuw %struct.lv_vector_draw_task, ptr %54, i32 0, i32 1
  %56 = getelementptr inbounds nuw %struct._lv_vector_draw_dsc_t, ptr %55, i32 0, i32 0
  %57 = getelementptr inbounds nuw %struct._lv_vector_fill_dsc_t, ptr %56, i32 0, i32 1
  %58 = load ptr, ptr %3, align 8, !tbaa !3
  %59 = getelementptr inbounds nuw %struct._lv_vector_dsc_t, ptr %58, i32 0, i32 1
  %60 = getelementptr inbounds nuw %struct._lv_vector_draw_dsc_t, ptr %59, i32 0, i32 0
  %61 = getelementptr inbounds nuw %struct._lv_vector_fill_dsc_t, ptr %60, i32 0, i32 1
  call void @llvm.memcpy.p0.p0.i64(ptr align 4 %57, ptr align 4 %61, i64 4, i1 false), !tbaa.struct !52
  %62 = load ptr, ptr %3, align 8, !tbaa !3
  %63 = getelementptr inbounds nuw %struct._lv_vector_dsc_t, ptr %62, i32 0, i32 1
  %64 = getelementptr inbounds nuw %struct._lv_vector_draw_dsc_t, ptr %63, i32 0, i32 0
  %65 = getelementptr inbounds nuw %struct._lv_vector_fill_dsc_t, ptr %64, i32 0, i32 2
  %66 = load i8, ptr %65, align 8, !tbaa !69
  %67 = load ptr, ptr %7, align 8, !tbaa !3
  %68 = getelementptr inbounds nuw %struct.lv_vector_draw_task, ptr %67, i32 0, i32 1
  %69 = getelementptr inbounds nuw %struct._lv_vector_draw_dsc_t, ptr %68, i32 0, i32 0
  %70 = getelementptr inbounds nuw %struct._lv_vector_fill_dsc_t, ptr %69, i32 0, i32 2
  store i8 %66, ptr %70, align 8, !tbaa !112
  %71 = load ptr, ptr %7, align 8, !tbaa !3
  %72 = getelementptr inbounds nuw %struct.lv_vector_draw_task, ptr %71, i32 0, i32 1
  %73 = getelementptr inbounds nuw %struct._lv_vector_draw_dsc_t, ptr %72, i32 0, i32 4
  %74 = load ptr, ptr %4, align 8, !tbaa !3
  call void @lv_area_copy(ptr noundef %73, ptr noundef %74)
  call void @llvm.lifetime.end.p0(i64 8, ptr %7) #7
  store i32 0, ptr %6, align 4
  br label %75

75:                                               ; preds = %47, %16
  call void @llvm.lifetime.end.p0(i64 16, ptr %5) #7
  %76 = load i32, ptr %6, align 4
  switch i32 %76, label %78 [
    i32 0, label %77
    i32 1, label %77
  ]

77:                                               ; preds = %75, %75
  ret void

78:                                               ; preds = %75
  unreachable
}