; Function Attrs: nounwind uwtable
define void @lv_vector_clear_area(ptr noundef %0, ptr nocapture noundef readonly %1) local_unnamed_addr #3 {
  %3 = alloca %struct.lv_area_t, align 4
  call void @llvm.lifetime.start.p0(i64 16, ptr nonnull %3) #9
  %4 = load ptr, ptr %0, align 8, !tbaa !30
  %5 = getelementptr inbounds nuw i8, ptr %4, i64 28
  %6 = getelementptr inbounds nuw i8, ptr %0, i64 432
  %7 = call zeroext i1 @lv_area_intersect(ptr noundef nonnull %3, ptr noundef nonnull %5, ptr noundef nonnull %6) #9
  br i1 %7, label %8, label %34

8:                                                ; preds = %2
  %9 = getelementptr inbounds nuw i8, ptr %0, i64 496
  %10 = load ptr, ptr %9, align 8, !tbaa !57
  %.not = icmp eq ptr %10, null
  br i1 %.not, label %11, label %14

11:                                               ; preds = %8
  %12 = call ptr @lv_malloc(i64 noundef 24) #9
  store ptr %12, ptr %9, align 8, !tbaa !57
  %.not14 = icmp eq ptr %12, null
  br i1 %.not14, label %.preheader, label %13

.preheader:                                       ; preds = %11, %.preheader
  br label %.preheader

13:                                               ; preds = %11
  call void @lv_ll_init(ptr noundef nonnull %12, i32 noundef 448) #9
  %.pre = load ptr, ptr %9, align 8, !tbaa !57
  br label %14

14:                                               ; preds = %13, %8
  %15 = phi ptr [ %.pre, %13 ], [ %10, %8 ]
  %16 = call ptr @lv_ll_ins_tail(ptr noundef %15) #9
  call void @lv_memset(ptr noundef %16, i8 noundef zeroext 0, i64 noundef 448) #9
  %17 = getelementptr inbounds nuw i8, ptr %16, i64 12
  %18 = getelementptr inbounds nuw i8, ptr %0, i64 12
  %19 = load i32, ptr %18, align 4
  store i32 %19, ptr %17, align 4
  %20 = getelementptr inbounds nuw i8, ptr %0, i64 16
  %21 = load i8, ptr %20, align 8, !tbaa !62
  %22 = getelementptr inbounds nuw i8, ptr %16, i64 16
  store i8 %21, ptr %22, align 8, !tbaa !104
  %23 = getelementptr inbounds nuw i8, ptr %16, i64 432
  %24 = load i32, ptr %1, align 4, !tbaa !21
  store i32 %24, ptr %23, align 4, !tbaa !21
  %25 = getelementptr inbounds nuw i8, ptr %1, i64 4
  %26 = load i32, ptr %25, align 4, !tbaa !23
  %27 = getelementptr inbounds nuw i8, ptr %16, i64 436
  store i32 %26, ptr %27, align 4, !tbaa !23
  %28 = getelementptr inbounds nuw i8, ptr %1, i64 8
  %29 = load i32, ptr %28, align 4, !tbaa !24
  %30 = getelementptr inbounds nuw i8, ptr %16, i64 440
  store i32 %29, ptr %30, align 4, !tbaa !24
  %31 = getelementptr inbounds nuw i8, ptr %1, i64 12
  %32 = load i32, ptr %31, align 4, !tbaa !25
  %33 = getelementptr inbounds nuw i8, ptr %16, i64 444
  store i32 %32, ptr %33, align 4, !tbaa !25
  br label %34

34:                                               ; preds = %2, %14
  call void @llvm.lifetime.end.p0(i64 16, ptr nonnull %3) #9
  ret void
}